(dp0
S'lammatory cytokine messenger'
p1
(i__main__
pair
p2
(dp3
S'pairs'
p4
(dp5
sbsS'earchLong noncoding'
p6
(i__main__
pair
p7
(dp8
g4
(dp9
sbsS'polymerase II transcribed primary microRNA transcri'
p10
(i__main__
pair
p11
(dp12
g4
(dp13
S'NAs and endogenous siR'
p14
I1
sS'3A'
p15
I1
ssbsS'amp'
p16
(i__main__
pair
p17
(dp18
g4
(dp19
S'n'
p20
I1
ssbsS'transcript antisense intergenic'
p21
(i__main__
pair
p22
(dp23
g4
(dp24
S'earchLong noncoding'
p25
I1
ssbsS'earchThe m'
p26
(i__main__
pair
p27
(dp28
g4
(dp29
S'B2 m'
p30
I1
ssbsS'M8 m'
p31
(i__main__
pair
p32
(dp33
g4
(dp34
sbsS'mary eukaryote transcri'
p35
(i__main__
pair
p36
(dp37
g4
(dp38
S'sn'
p39
I1
ssbsS'P2 m'
p40
(i__main__
pair
p41
(dp42
g4
(dp43
S'polymerase II transcribed primary microRNA transcri'
p44
I1
sS'NAs and endogenous siR'
p45
I1
sS'3A'
p46
I1
ssbsS'R3 m'
p47
(i__main__
pair
p48
(dp49
g4
(dp50
sbsS'Y4 small interfering'
p51
(i__main__
pair
p52
(dp53
g4
(dp54
sbsS'B1 m'
p55
(i__main__
pair
p56
(dp57
g4
(dp58
S'earchThe m'
p59
I2
sS'B2 m'
p60
I2
ssbsS'G m'
p61
(i__main__
pair
p62
(dp63
g4
(dp64
S'6 m'
p65
I1
ssbsS'K3 m'
p66
(i__main__
pair
p67
(dp68
g4
(dp69
S'K1 m'
p70
I1
sS'k3 m'
p71
I1
ssbsS'7L2 m'
p72
(i__main__
pair
p73
(dp74
g4
(dp75
sbsS'N m'
p76
(i__main__
pair
p77
(dp78
g4
(dp79
S'N si'
p80
I1
ssbsS'ritin m'
p81
(i__main__
pair
p82
(dp83
g4
(dp84
S'1 m'
p85
I1
ssbsS'33 m'
p86
(i__main__
pair
p87
(dp88
g4
(dp89
S'33 messenger'
p90
I1
ssbsS'NAs and endogenous siR'
p91
(i__main__
pair
p92
(dp93
g4
(dp94
S'polymerase II transcribed primary microRNA transcri'
p95
I1
sS'3A'
p96
I1
ssbsS'geted'
p97
(i__main__
pair
p98
(dp99
g4
(dp100
S'al miR'
p101
I1
ssbsS'spec'
p102
(i__main__
pair
p103
(dp104
g4
(dp105
S'transcri'
p106
I1
ssbsS'0 encoding'
p107
(i__main__
pair
p108
(dp109
g4
(dp110
sbsS'dat1 m'
p111
(i__main__
pair
p112
(dp113
g4
(dp114
sbsS'transcript antisense'
p115
(i__main__
pair
p116
(dp117
g4
(dp118
sbsS'X1 m'
p119
(i__main__
pair
p120
(dp121
g4
(dp122
sbsS'er m'
p123
(i__main__
pair
p124
(dp125
g4
(dp126
sbsS'P1 and 3 m'
p127
(i__main__
pair
p128
(dp129
g4
(dp130
S'P1 m'
p131
I1
sS'P3 m'
p132
I3
sS'P1 and ATIP3 m'
p133
I2
ssbsS'5A1 m'
p134
(i__main__
pair
p135
(dp136
g4
(dp137
S'5A1 transcri'
p138
I2
ssbsS'2 m'
p139
(i__main__
pair
p140
(dp141
g4
(dp142
S'3 m'
p143
I1
sS'transcripts and TRAIL m'
p144
I1
sS'5 m'
p145
I2
sS'1 m'
p146
I4
sS'4 m'
p147
I1
sS'26 a transcri'
p148
I1
ssbsS'poR2 m'
p149
(i__main__
pair
p150
(dp151
g4
(dp152
S'ponectin recepto'
p153
I1
ssbsS'al m'
p154
(i__main__
pair
p155
(dp156
g4
(dp157
S'get m'
p158
I1
sS'ing R'
p159
I1
ssbsS'K transcr'
p160
(i__main__
pair
p161
(dp162
g4
(dp163
S'transcr'
p164
I1
ssbsS'n m'
p165
(i__main__
pair
p166
(dp167
g4
(dp168
sbsS'leptin gene m'
p169
(i__main__
pair
p170
(dp171
g4
(dp172
sbsS'21 transcri'
p173
(i__main__
pair
p174
(dp175
g4
(dp176
sbsS'70 transcr'
p177
(i__main__
pair
p178
(dp179
g4
(dp180
S'transcri'
p181
I2
sS'm'
p182
I1
sS'70 and HSP40 transcri'
p183
I1
sS'70 transcri'
p184
I1
sS'mR'
p185
I1
ssbsS'3 transcri'
p186
(i__main__
pair
p187
(dp188
g4
(dp189
S'4 m'
p190
I1
sS'3 m'
p191
I1
sS'1 m'
p192
I4
ssbsS'4 m'
p193
(i__main__
pair
p194
(dp195
g4
(dp196
S'3 m'
p197
I1
sS'1 m'
p198
I4
ssbsS'h transcript m'
p199
(i__main__
pair
p200
(dp201
g4
(dp202
sbsS'leolin m'
p203
(i__main__
pair
p204
(dp205
g4
(dp206
S'mary miRNA transcri'
p207
I1
ssbsS'an p27 m'
p208
(i__main__
pair
p209
(dp210
g4
(dp211
S'ppp'
p212
I1
sg182
I6
ssbsS'p3 m'
p213
(i__main__
pair
p214
(dp215
g4
(dp216
sbsS'1 and NACA transcri'
p217
(i__main__
pair
p218
(dp219
g4
(dp220
sbsS'DH m'
p221
(i__main__
pair
p222
(dp223
g4
(dp224
S'P1 m'
p225
I2
sS'okine m'
p226
I1
ssbsS'senger'
p227
(i__main__
pair
p228
(dp229
g4
(dp230
sbsS'get mR'
p231
(i__main__
pair
p232
(dp233
g4
(dp234
sbsS'dges m'
p235
(i__main__
pair
p236
(dp237
g4
(dp238
sbsS'al R'
p239
(i__main__
pair
p240
(dp241
g4
(dp242
sbsS'c m'
p243
(i__main__
pair
p244
(dp245
g4
(dp246
S'N1A m'
p247
I1
ssbsS'70 transcri'
p248
(i__main__
pair
p249
(dp250
g4
(dp251
S'transcri'
p252
I2
sg182
I1
sS'70 and HSP40 transcri'
p253
I1
sS'70 transcr'
p254
I1
sS'mR'
p255
I1
ssbsS'ion transcri'
p256
(i__main__
pair
p257
(dp258
g4
(dp259
g182
I2
ssbsS'AP m'
p260
(i__main__
pair
p261
(dp262
g4
(dp263
sbsS'll inhibitory'
p264
(i__main__
pair
p265
(dp266
g4
(dp267
sbsS'0 m'
p268
(i__main__
pair
p269
(dp270
g4
(dp271
sbsS'erfering'
p272
(i__main__
pair
p273
(dp274
g4
(dp275
S'B5 m'
p276
I2
sS'P51 m'
p277
I4
ssbsS'B5 m'
p278
(i__main__
pair
p279
(dp280
g4
(dp281
S'erfering'
p282
I2
sS'P51 m'
p283
I4
ssbsS'78 m'
p284
(i__main__
pair
p285
(dp286
g4
(dp287
sbsS'l gene transcri'
p288
(i__main__
pair
p289
(dp290
g4
(dp291
S'erfering'
p292
I1
sS'B5 m'
p293
I1
sS'P51 m'
p294
I2
ssbsS'bp m'
p295
(i__main__
pair
p296
(dp297
g4
(dp298
S'transcri'
p299
I1
ssbsS'proteins carry out'
p300
(i__main__
pair
p301
(dp302
g4
(dp303
S'tifunctional'
p304
I1
ssbsS'ase2 m'
p305
(i__main__
pair
p306
(dp307
g4
(dp308
sbsS'bal messenger'
p309
(i__main__
pair
p310
(dp311
g4
(dp312
S'll R'
p313
I1
ssbsS'A11 m'
p314
(i__main__
pair
p315
(dp316
g4
(dp317
sbsS'3A'
p318
(i__main__
pair
p319
(dp320
g4
(dp321
S'polymerase II transcribed primary microRNA transcri'
p322
I1
sS'NAs and endogenous siR'
p323
I1
ssbsS'ck m'
p324
(i__main__
pair
p325
(dp326
g4
(dp327
S'polymerase'
p328
I1
sS'nscribed m'
p329
I3
sS'sf1 b m'
p330
I1
sS'sf1 b transcr'
p331
I1
sg20
I1
ssbsS'an TOP2A m'
p332
(i__main__
pair
p333
(dp334
g4
(dp335
sbsS'antisense intergenic'
p336
(i__main__
pair
p337
(dp338
g4
(dp339
S'ro'
p340
I1
ssbsS'AIP3 m'
p341
(i__main__
pair
p342
(dp343
g4
(dp344
sbsS'A m'
p345
(i__main__
pair
p346
(dp347
g4
(dp348
sbsS'get m'
p349
(i__main__
pair
p350
(dp351
g4
(dp352
S'S m'
p353
I1
sS'ing R'
p354
I1
ssbsS'R4 m'
p355
(i__main__
pair
p356
(dp357
g4
(dp358
S'ion transcri'
p359
I1
sg182
I2
ssbsS'B2 m'
p360
(i__main__
pair
p361
(dp362
g4
(dp363
S'earchThe m'
p364
I1
sS'ogenous'
p365
I1
ssbsS'nscribed m'
p366
(i__main__
pair
p367
(dp368
g4
(dp369
S'polymerase'
p370
I3
sS'sf1 b m'
p371
I3
sS'sf1 b transcr'
p372
I3
sg20
I3
ssbsS'rocessed R'
p373
(i__main__
pair
p374
(dp375
g4
(dp376
sbsS'AIR lncRNA HOTAIR lnc'
p377
(i__main__
pair
p378
(dp379
g4
(dp380
sbsS'KL si'
p381
(i__main__
pair
p382
(dp383
g4
(dp384
sbsS'F m'
p385
(i__main__
pair
p386
(dp387
g4
(dp388
S'A transcr'
p389
I1
ssbsS'ro'
p390
(i__main__
pair
p391
(dp392
g4
(dp393
sbsS'asy'
p394
(i__main__
pair
p395
(dp396
g4
(dp397
sbsS'D1 transcr'
p398
(i__main__
pair
p399
(dp400
g4
(dp401
S'D1 transcri'
p402
I1
ssbsS'mary R'
p403
(i__main__
pair
p404
(dp405
g4
(dp406
sbsS'P1 m'
p407
(i__main__
pair
p408
(dp409
g4
(dp410
S'PP m'
p411
I1
sS'P3 m'
p412
I6
sS'P1 and ATIP3 m'
p413
I4
ssbsS'C1HBVHB x'
p414
(i__main__
pair
p415
(dp416
g4
(dp417
sbsS'0T'
p418
(i__main__
pair
p419
(dp420
g4
(dp421
sbsS'mary miRNA transcri'
p422
(i__main__
pair
p423
(dp424
g4
(dp425
S'leolin m'
p426
I1
ssbsS'5 small interfering'
p427
(i__main__
pair
p428
(dp429
g4
(dp430
sbsS'As and miR'
p431
(i__main__
pair
p432
(dp433
g4
(dp434
sbsS'transcri'
p435
(i__main__
pair
p436
(dp437
g4
(dp438
S'leolin m'
p439
I1
sS'70 transcri'
p440
I5
sS'mary miRNA transcri'
p441
I1
sg182
I5
sS'70 and HSP40 transcri'
p442
I5
sS'70 transcr'
p443
I5
sS'mR'
p444
I5
ssbsS'A1 m'
p445
(i__main__
pair
p446
(dp447
g4
(dp448
sbsS'transcripts and TRAIL m'
p449
(i__main__
pair
p450
(dp451
g4
(dp452
sbsS'T2 m'
p453
(i__main__
pair
p454
(dp455
g4
(dp456
S'T2 si'
p457
I2
ssbsS'70 and HSP40 transcri'
p458
(i__main__
pair
p459
(dp460
g4
(dp461
S'transcri'
p462
I2
sg182
I1
sS'70 transcr'
p463
I1
sS'70 transcri'
p464
I1
sS'mR'
p465
I1
ssbsS'9 m'
p466
(i__main__
pair
p467
(dp468
g4
(dp469
S'05 m'
p470
I2
ssbsS'1 sh'
p471
(i__main__
pair
p472
(dp473
g4
(dp474
sbsS'S3 m'
p475
(i__main__
pair
p476
(dp477
g4
(dp478
sbsS'sf1 b m'
p479
(i__main__
pair
p480
(dp481
g4
(dp482
S'polymerase'
p483
I1
sS'nscribed m'
p484
I3
sS'sf1 b transcr'
p485
I1
sg20
I1
ssbsS'14 m'
p486
(i__main__
pair
p487
(dp488
g4
(dp489
sbsS'5A1 transcri'
p490
(i__main__
pair
p491
(dp492
g4
(dp493
S'5A1 m'
p494
I1
ssbsS'N1A m'
p495
(i__main__
pair
p496
(dp497
g4
(dp498
S'c m'
p499
I2
ssbsS'T transcri'
p500
(i__main__
pair
p501
(dp502
g4
(dp503
sbsS'P m'
p504
(i__main__
pair
p505
(dp506
g4
(dp507
S'sf1 b transcr'
p508
I2
sS'EBP m'
p509
I2
sg182
I3
sg20
I2
sS'polymerase'
p510
I2
sS'nscribed m'
p511
I6
sS'sf1 b m'
p512
I2
sS'r 18 S'
p513
I1
ssbsS'A1 sh'
p514
(i__main__
pair
p515
(dp516
g4
(dp517
S'A1 si'
p518
I4
ssbsS'A1 si'
p519
(i__main__
pair
p520
(dp521
g4
(dp522
S'A1 sh'
p523
I3
ssbsS'PTL3 m'
p524
(i__main__
pair
p525
(dp526
g4
(dp527
sbsS'39'
p528
(i__main__
pair
p529
(dp530
g4
(dp531
sbsS'P51 m'
p532
(i__main__
pair
p533
(dp534
g4
(dp535
S'erfering'
p536
I2
sS'B5 m'
p537
I2
ssbsS'E8 m'
p538
(i__main__
pair
p539
(dp540
g4
(dp541
sbsS'D2 m'
p542
(i__main__
pair
p543
(dp544
g4
(dp545
sbsS'pose'
p546
(i__main__
pair
p547
(dp548
g4
(dp549
sbsS'ntegrin subunit m'
p550
(i__main__
pair
p551
(dp552
g4
(dp553
sbsS'fatin m'
p554
(i__main__
pair
p555
(dp556
g4
(dp557
S'ponectin m'
p558
I1
ssbsS'ing R'
p559
(i__main__
pair
p560
(dp561
g4
(dp562
S'get m'
p563
I1
ssbsS'okine m'
p564
(i__main__
pair
p565
(dp566
g4
(dp567
sbsS'78 at m'
p568
(i__main__
pair
p569
(dp570
g4
(dp571
S'78 m'
p572
I3
ssbsS'l length transcri'
p573
(i__main__
pair
p574
(dp575
g4
(dp576
S'S m'
p577
I1
ssbsS'transcr'
p578
(i__main__
pair
p579
(dp580
g4
(dp581
g182
I5
sS'an MT m'
p582
I1
ssbsS'PP m'
p583
(i__main__
pair
p584
(dp585
g4
(dp586
sbsS'mary transcri'
p587
(i__main__
pair
p588
(dp589
g4
(dp590
sbsS'T m'
p591
(i__main__
pair
p592
(dp593
g4
(dp594
sbsS'ME m'
p595
(i__main__
pair
p596
(dp597
g4
(dp598
sbsS'2B m'
p599
(i__main__
pair
p600
(dp601
g4
(dp602
sbsS'T through'
p603
(i__main__
pair
p604
(dp605
g4
(dp606
sbsS'rt hairpin'
p607
(i__main__
pair
p608
(dp609
g4
(dp610
sbsS'co'
p611
(i__main__
pair
p612
(dp613
g4
(dp614
sbsS'LH m'
p615
(i__main__
pair
p616
(dp617
g4
(dp618
sbsS'IL m'
p619
(i__main__
pair
p620
(dp621
g4
(dp622
sbsS'26 a transcri'
p623
(i__main__
pair
p624
(dp625
g4
(dp626
S'2 m'
p627
I1
ssbsS'coding'
p628
(i__main__
pair
p629
(dp630
g4
(dp631
sbsS'stitutive m'
p632
(i__main__
pair
p633
(dp634
g4
(dp635
g182
I1
ssbsS'ppp'
p636
(i__main__
pair
p637
(dp638
g4
(dp639
g182
I6
sS'an p27 m'
p640
I1
ssbsS'R2 small interfering'
p641
(i__main__
pair
p642
(dp643
g4
(dp644
sbsS'G2 m'
p645
(i__main__
pair
p646
(dp647
g4
(dp648
S'erfering'
p649
I1
sS'B5 m'
p650
I1
sS'P51 m'
p651
I2
ssbsS'26 a1 mR'
p652
(i__main__
pair
p653
(dp654
g4
(dp655
S'2 m'
p656
I1
sS'26 a transcri'
p657
I1
ssbsS'05 m'
p658
(i__main__
pair
p659
(dp660
g4
(dp661
sbsS'EN mR'
p662
(i__main__
pair
p663
(dp664
g4
(dp665
sbsS'll nuclear'
p666
(i__main__
pair
p667
(dp668
g4
(dp669
S'E1 m'
p670
I3
ssbsS'A10 m'
p671
(i__main__
pair
p672
(dp673
g4
(dp674
sbsS'As and noncoding R'
p675
(i__main__
pair
p676
(dp677
g4
(dp678
sbsS'leolar R'
p679
(i__main__
pair
p680
(dp681
g4
(dp682
sbsS's targeting multiple mR'
p683
(i__main__
pair
p684
(dp685
g4
(dp686
sbsS'ysomes bound to mR'
p687
(i__main__
pair
p688
(dp689
g4
(dp690
sbsS'h m'
p691
(i__main__
pair
p692
(dp693
g4
(dp694
sbsS'E1 m'
p695
(i__main__
pair
p696
(dp697
g4
(dp698
sbsS'00 m'
p699
(i__main__
pair
p700
(dp701
g4
(dp702
S'AIP3 m'
p703
I2
ssbsS'ponectin recepto'
p704
(i__main__
pair
p705
(dp706
g4
(dp707
S'poR2 m'
p708
I2
ssbsS'T2 si'
p709
(i__main__
pair
p710
(dp711
g4
(dp712
S'erfering'
p713
I1
sS'T2 m'
p714
I1
ssbsS'E m'
p715
(i__main__
pair
p716
(dp717
g4
(dp718
sbsS'isense'
p719
(i__main__
pair
p720
(dp721
g4
(dp722
sbsS'extraction'
p723
(i__main__
pair
p724
(dp725
g4
(dp726
sbsS'25 m'
p727
(i__main__
pair
p728
(dp729
g4
(dp730
g182
I2
ssbsS'2'
p731
(i__main__
pair
p732
(dp733
g4
(dp734
S'2 transcr'
p735
I6
ssbsS'in m'
p736
(i__main__
pair
p737
(dp738
g4
(dp739
g182
I3
ssbsS'ure 12 m'
p740
(i__main__
pair
p741
(dp742
g4
(dp743
sbsS'T1 m'
p744
(i__main__
pair
p745
(dp746
g4
(dp747
sbsS'er1 and Ago1 mR'
p748
(i__main__
pair
p749
(dp750
g4
(dp751
S'll R'
p752
I1
ssbsS'recepto'
p753
(i__main__
pair
p754
(dp755
g4
(dp756
sbsS'uencing messenger'
p757
(i__main__
pair
p758
(dp759
g4
(dp760
sbsS'r3 m'
p761
(i__main__
pair
p762
(dp763
g4
(dp764
sbsS'3 m'
p765
(i__main__
pair
p766
(dp767
g4
(dp768
S'4 m'
p769
I1
sS'1 m'
p770
I10
ssbsS'AT1 shi'
p771
(i__main__
pair
p772
(dp773
g4
(dp774
sbsS'CH1 m'
p775
(i__main__
pair
p776
(dp777
g4
(dp778
sbsS'k m'
p779
(i__main__
pair
p780
(dp781
g4
(dp782
sbsS'ar m'
p783
(i__main__
pair
p784
(dp785
g4
(dp786
sbsS'd4 m'
p787
(i__main__
pair
p788
(dp789
g4
(dp790
sbsS'P1 and ATIP3 m'
p791
(i__main__
pair
p792
(dp793
g4
(dp794
S'P1 m'
p795
I2
sS'P3 m'
p796
I6
ssbsS'5 m'
p797
(i__main__
pair
p798
(dp799
g4
(dp800
S'2 m'
p801
I4
ssbsS'mR'
p802
(i__main__
pair
p803
(dp804
g4
(dp805
S'70 transcri'
p806
I2
sS'transcri'
p807
I4
sg182
I2
sS'70 and HSP40 transcri'
p808
I2
sS'70 transcr'
p809
I2
sS'2J2 m'
p810
I1
ssbsS'K1 m'
p811
(i__main__
pair
p812
(dp813
g4
(dp814
S'k3 m'
p815
I1
ssbsS'C2 m'
p816
(i__main__
pair
p817
(dp818
g4
(dp819
sbsS'al TAR'
p820
(i__main__
pair
p821
(dp822
g4
(dp823
S'al miR'
p824
I1
sS'geted'
p825
I1
ssbsS'll R'
p826
(i__main__
pair
p827
(dp828
g4
(dp829
S'bal messenger'
p830
I1
sS'er1 and Ago1 mR'
p831
I2
ssbsS'F4 m'
p832
(i__main__
pair
p833
(dp834
g4
(dp835
sbsS'P1 si'
p836
(i__main__
pair
p837
(dp838
g4
(dp839
sbsS'MP YDR228C PCF11 m'
p840
(i__main__
pair
p841
(dp842
g4
(dp843
sbsS'sf1 b transcr'
p844
(i__main__
pair
p845
(dp846
g4
(dp847
S'polymerase'
p848
I2
sS'nscribed m'
p849
I6
sS'sf1 b m'
p850
I2
sg20
I2
ssbsS'genes YHR090C Y'
p851
(i__main__
pair
p852
(dp853
g4
(dp854
S'MP YDR228C PCF11 m'
p855
I1
ssbsS'r 18 S'
p856
(i__main__
pair
p857
(dp858
g4
(dp859
g182
I3
sS'EBP m'
p860
I2
ssbsS'tifunctional'
p861
(i__main__
pair
p862
(dp863
g4
(dp864
sbsS'nscribed into mR'
p865
(i__main__
pair
p866
(dp867
g4
(dp868
sbsS'or suppressor mR'
p869
(i__main__
pair
p870
(dp871
g4
(dp872
sbsg20
(i__main__
pair
p873
(dp874
g4
(dp875
S'sf1 b transcr'
p876
I1
sg182
I1
sS'lamin A m'
p877
I1
sS'polymerase'
p878
I1
sS'nscribed m'
p879
I3
sS'sf1 b m'
p880
I1
sS'T through'
p881
I1
ssbsS'k3 m'
p882
(i__main__
pair
p883
(dp884
g4
(dp885
S'K1 m'
p886
I1
ssbsS'CA2 b m'
p887
(i__main__
pair
p888
(dp889
g4
(dp890
sbsS'1 m'
p891
(i__main__
pair
p892
(dp893
g4
(dp894
g182
I3
sS'4 m'
p895
I8
sS'r 18 S'
p896
I1
sS'3 m'
p897
I10
sS'EBP m'
p898
I2
ssbsS'NA and m'
p899
(i__main__
pair
p900
(dp901
g4
(dp902
sbsS'33 messenger'
p903
(i__main__
pair
p904
(dp905
g4
(dp906
S'33 m'
p907
I1
ssbsS'POR2 m'
p908
(i__main__
pair
p909
(dp910
g4
(dp911
sbsS'D1 transcri'
p912
(i__main__
pair
p913
(dp914
g4
(dp915
S'D1 transcr'
p916
I1
ssbsS'siR'
p917
(i__main__
pair
p918
(dp919
g4
(dp920
sbsS'6 full length transcripts since shorter mR'
p921
(i__main__
pair
p922
(dp923
g4
(dp924
sbsS'oplasmic m'
p925
(i__main__
pair
p926
(dp927
g4
(dp928
sbsS'eobox transcript antisense'
p929
(i__main__
pair
p930
(dp931
g4
(dp932
sbsS'al'
p933
(i__main__
pair
p934
(dp935
g4
(dp936
S'43 transcri'
p937
I1
ssbsS'merin m'
p938
(i__main__
pair
p939
(dp940
g4
(dp941
sbsS'ant'
p942
(i__main__
pair
p943
(dp944
g4
(dp945
sbsS'onical m'
p946
(i__main__
pair
p947
(dp948
g4
(dp949
sbsS'polymerase'
p950
(i__main__
pair
p951
(dp952
g4
(dp953
S'nscribed m'
p954
I3
sS'sf1 b m'
p955
I1
sS'sf1 b transcr'
p956
I1
sg20
I1
ssbsS'tissue'
p957
(i__main__
pair
p958
(dp959
g4
(dp960
S'leptin gene m'
p961
I1
ssbsS'ernative transcri'
p962
(i__main__
pair
p963
(dp964
g4
(dp965
S'1'
p966
I1
ssbsS'L4 m'
p967
(i__main__
pair
p968
(dp969
g4
(dp970
sbsS'miR'
p971
(i__main__
pair
p972
(dp973
g4
(dp974
sbsS'get messenger'
p975
(i__main__
pair
p976
(dp977
g4
(dp978
sbsS'okeratin 19 m'
p979
(i__main__
pair
p980
(dp981
g4
(dp982
sbsS'2J2 m'
p983
(i__main__
pair
p984
(dp985
g4
(dp986
S'mR'
p987
I1
ssbsS'n 11 of prelamin A m'
p988
(i__main__
pair
p989
(dp990
g4
(dp991
S'lamin A m'
p992
I1
sg20
I1
ssbsS'og m'
p993
(i__main__
pair
p994
(dp995
g4
(dp996
sbsS'ant mR'
p997
(i__main__
pair
p998
(dp999
g4
(dp1000
S'A transcri'
p1001
I1
sS'y normal transcri'
p1002
I1
ssbsS'EBP m'
p1003
(i__main__
pair
p1004
(dp1005
g4
(dp1006
g182
I6
sS'r 18 S'
p1007
I2
ssbsS'N si'
p1008
(i__main__
pair
p1009
(dp1010
g4
(dp1011
sbsS'y normal transcri'
p1012
(i__main__
pair
p1013
(dp1014
g4
(dp1015
S'A transcri'
p1016
I1
ssbsS'sma m'
p1017
(i__main__
pair
p1018
(dp1019
g4
(dp1020
sbsS'lamin A m'
p1021
(i__main__
pair
p1022
(dp1023
g4
(dp1024
g20
I1
ssbsg966
(i__main__
pair
p1025
(dp1026
g4
(dp1027
S'39'
p1028
I1
ssbsS'5A short hairpin'
p1029
(i__main__
pair
p1030
(dp1031
g4
(dp1032
sbsS'o primary transcri'
p1033
(i__main__
pair
p1034
(dp1035
g4
(dp1036
sbsS'lular transcri'
p1037
(i__main__
pair
p1038
(dp1039
g4
(dp1040
sbsS'matase m'
p1041
(i__main__
pair
p1042
(dp1043
g4
(dp1044
sbsS'RT m'
p1045
(i__main__
pair
p1046
(dp1047
g4
(dp1048
sbsS'43 transcri'
p1049
(i__main__
pair
p1050
(dp1051
g4
(dp1052
sbsS'll cytoplasmic'
p1053
(i__main__
pair
p1054
(dp1055
g4
(dp1056
S'leolar R'
p1057
I1
ssbsS'A'
p1058
(i__main__
pair
p1059
(dp1060
g4
(dp1061
sbsS'D transcrip'
p1062
(i__main__
pair
p1063
(dp1064
g4
(dp1065
sbsS'T3 si'
p1066
(i__main__
pair
p1067
(dp1068
g4
(dp1069
sbsS'bilizing m'
p1070
(i__main__
pair
p1071
(dp1072
g4
(dp1073
sbsS'an MT m'
p1074
(i__main__
pair
p1075
(dp1076
g4
(dp1077
g182
I5
ssbsS'ranslated mR'
p1078
(i__main__
pair
p1079
(dp1080
g4
(dp1081
sbsS'P channel m'
p1082
(i__main__
pair
p1083
(dp1084
g4
(dp1085
sbsS'ER m'
p1086
(i__main__
pair
p1087
(dp1088
g4
(dp1089
g182
I2
ssbsS'lst m'
p1090
(i__main__
pair
p1091
(dp1092
g4
(dp1093
sbsS'P3 m'
p1094
(i__main__
pair
p1095
(dp1096
g4
(dp1097
S'P1 m'
p1098
I4
sS'P1 and ATIP3 m'
p1099
I8
ssbsS'roRNA and m'
p1100
(i__main__
pair
p1101
(dp1102
g4
(dp1103
sbsS'4F2 and CYPA22 mR'
p1104
(i__main__
pair
p1105
(dp1106
g4
(dp1107
S'2J2 m'
p1108
I1
sS'mR'
p1109
I1
ssbsS'C m'
p1110
(i__main__
pair
p1111
(dp1112
g4
(dp1113
sbsS'gle m'
p1114
(i__main__
pair
p1115
(dp1116
g4
(dp1117
sbsS'al miR'
p1118
(i__main__
pair
p1119
(dp1120
g4
(dp1121
S'geted'
p1122
I1
ssbsS'll ncRNAs are miR'
p1123
(i__main__
pair
p1124
(dp1125
g4
(dp1126
S'ogenous'
p1127
I1
ssbsS'A transcri'
p1128
(i__main__
pair
p1129
(dp1130
g4
(dp1131
S'y normal transcri'
p1132
I1
ssbsS't1 m'
p1133
(i__main__
pair
p1134
(dp1135
g4
(dp1136
sbsS'H rhodopsin transge'
p1137
(i__main__
pair
p1138
(dp1139
g4
(dp1140
sbsS'a3 m'
p1141
(i__main__
pair
p1142
(dp1143
g4
(dp1144
sbsS'A transcr'
p1145
(i__main__
pair
p1146
(dp1147
g4
(dp1148
sbsS'x2 m'
p1149
(i__main__
pair
p1150
(dp1151
g4
(dp1152
sbsS'S m'
p1153
(i__main__
pair
p1154
(dp1155
g4
(dp1156
S'get m'
p1157
I1
ssbsS'll interfering'
p1158
(i__main__
pair
p1159
(dp1160
g4
(dp1161
sbsS'6 m'
p1162
(i__main__
pair
p1163
(dp1164
g4
(dp1165
S'G m'
p1166
I1
sS'oplasmic m'
p1167
I1
ssbsS'bilizing multiple mR'
p1168
(i__main__
pair
p1169
(dp1170
g4
(dp1171
g182
I2
ssbsS'ponectin m'
p1172
(i__main__
pair
p1173
(dp1174
g4
(dp1175
S'merin m'
p1176
I8
ssbsg182
(i__main__
pair
p1177
(dp1178
g4
(dp1179
S'ppp'
p1180
I10
sg20
I3
sS'3 m'
p1181
I1
sS'og m'
p1182
I1
sS'EBP m'
p1183
I8
sS'get m'
p1184
I1
sS'G m'
p1185
I1
sS'25 m'
p1186
I1
sS'nscribed m'
p1187
I3
sS'in m'
p1188
I1
sS'r 18 S'
p1189
I4
sS'erfering'
p1190
I2
sS'an MT m'
p1191
I8
sS'transcri'
p1192
I6
sS'70 and HSP40 transcri'
p1193
I3
sS'polymerase'
p1194
I1
sS'sf1 b m'
p1195
I1
sS'70 transcr'
p1196
I3
sS'mR'
p1197
I3
sS'P1 si'
p1198
I2
sS'an p27 m'
p1199
I10
sS'sf1 b transcr'
p1200
I1
sS'6 m'
p1201
I1
sS'bilizing multiple mR'
p1202
I1
sS'ing R'
p1203
I1
sS'70 transcri'
p1204
I3
sS'1 m'
p1205
I2
sS'ion transcri'
p1206
I2
sS'stitutive m'
p1207
I2
sS'ified'
p1208
I4
ssbsS'ophagy gene mR'
p1209
(i__main__
pair
p1210
(dp1211
g4
(dp1212
sbsS'ogenous'
p1213
(i__main__
pair
p1214
(dp1215
g4
(dp1216
S'B2 m'
p1217
I2
ssbsS'a8 m'
p1218
(i__main__
pair
p1219
(dp1220
g4
(dp1221
S'U m'
p1222
I1
ssbsS'si'
p1223
(i__main__
pair
p1224
(dp1225
g4
(dp1226
sbsS'U m'
p1227
(i__main__
pair
p1228
(dp1229
g4
(dp1230
S'a8 m'
p1231
I2
ssbsS'sn'
p1232
(i__main__
pair
p1233
(dp1234
g4
(dp1235
S'mary eukaryote transcri'
p1236
I1
ssbsS'2 transcr'
p1237
(i__main__
pair
p1238
(dp1239
g4
(dp1240
g731
I2
ssbsS'A spec'
p1241
(i__main__
pair
p1242
(dp1243
g4
(dp1244
sbsS'luenza A'
p1245
(i__main__
pair
p1246
(dp1247
g4
(dp1248
sbsS'ified'
p1249
(i__main__
pair
p1250
(dp1251
g4
(dp1252
g182
I2
ssbsS'goengine small hairpin'
p1253
(i__main__
pair
p1254
(dp1255
g4
(dp1256
S'3 m'
p1257
I2
ssbsS'D1'
p1258
(i__main__
pair
p1259
(dp1260
g4
(dp1261
S'D1 transcri'
p1262
I1
sS'D1 transcr'
p1263
I1
ssbs.